; Function Attrs: nounwind uwtable
define internal range(i32 -2147483648, 1) i32 @oscilloscope_process_command(ptr noundef %0, ptr noundef %1, ptr noundef %2, ptr noundef %3, i32 noundef %4, i32 noundef %5) #0 {
  %7 = tail call i32 @ff_filter_process_command(ptr noundef %0, ptr noundef %1, ptr noundef %2, ptr noundef %3, i32 noundef %4, i32 noundef %5) #15
  %8 = icmp slt i32 %7, 0
  br i1 %8, label %12, label %9

9:                                                ; preds = %6
  %10 = getelementptr i8, ptr %0, i64 32
  %.val = load ptr, ptr %10, align 8, !tbaa !4
  %11 = getelementptr i8, ptr %0, i64 72
  %.val10 = load ptr, ptr %11, align 8, !tbaa !22
  %.val.val = load ptr, ptr %.val, align 8, !tbaa !20
  tail call fastcc void @update_oscilloscope(ptr %.val.val, ptr %.val10)
  br label %12

12:                                               ; preds = %6, %9
  %.0 = phi i32 [ 0, %9 ], [ %7, %6 ]
  ret i32 %.0
}